; ModuleID = '23/135.c'
source_filename = "23/135.c"
target datalayout = "e-m:e-p270:32:32-p271:32:32-p272:64:64-i64:64-f80:128-n8:16:32:64-S128"
target triple = "x86_64-pc-linux-gnu"

@s = common dso_local global [105 x i8] zeroinitializer, align 16

; Function Attrs: noinline nounwind uwtable
define dso_local void @change(i32 %0, i32 %1) #0 {
  %3 = alloca i32, align 4
  %4 = alloca i32, align 4
  %5 = alloca i8, align 1
  %6 = alloca i32, align 4
  store i32 %0, i32* %3, align 4
  store i32 %1, i32* %4, align 4
  %7 = load i32, i32* %3, align 4
  store i32 %7, i32* %6, align 4
  br label %8

8:                                                ; preds = %39, %2
  %9 = load i32, i32* %6, align 4
  %10 = load i32, i32* %3, align 4
  %11 = load i32, i32* %4, align 4
  %12 = add nsw i32 %10, %11
  %13 = sdiv i32 %12, 2
  %14 = icmp sle i32 %9, %13
  br i1 %14, label %15, label %42

15:                                               ; preds = %8
  %16 = load i32, i32* %6, align 4
  %17 = sext i32 %16 to i64
  %18 = getelementptr inbounds [105 x i8], [105 x i8]* @s, i64 0, i64 %17
  %19 = load i8, i8* %18, align 1
  store i8 %19, i8* %5, align 1
  %20 = load i32, i32* %3, align 4
  %21 = load i32, i32* %4, align 4
  %22 = add nsw i32 %20, %21
  %23 = load i32, i32* %6, align 4
  %24 = sub nsw i32 %22, %23
  %25 = sext i32 %24 to i64
  %26 = getelementptr inbounds [105 x i8], [105 x i8]* @s, i64 0, i64 %25
  %27 = load i8, i8* %26, align 1
  %28 = load i32, i32* %6, align 4
  %29 = sext i32 %28 to i64
  %30 = getelementptr inbounds [105 x i8], [105 x i8]* @s, i64 0, i64 %29
  store i8 %27, i8* %30, align 1
  %31 = load i8, i8* %5, align 1
  %32 = load i32, i32* %3, align 4
  %33 = load i32, i32* %4, align 4
  %34 = add nsw i32 %32, %33
  %35 = load i32, i32* %6, align 4
  %36 = sub nsw i32 %34, %35
  %37 = sext i32 %36 to i64
  %38 = getelementptr inbounds [105 x i8], [105 x i8]* @s, i64 0, i64 %37
  store i8 %31, i8* %38, align 1
  br label %39

39:                                               ; preds = %15
  %40 = load i32, i32* %6, align 4
  %41 = add nsw i32 %40, 1
  store i32 %41, i32* %6, align 4
  br label %8

42:                                               ; preds = %8
  ret void
}

; Function Attrs: noinline nounwind uwtable
define dso_local void @main() #0 {
  %1 = alloca i32, align 4
  %2 = alloca i32, align 4
  %3 = alloca i32, align 4
  %4 = alloca i32, align 4
  store i32 0, i32* %3, align 4
  %5 = call i32 (i8*, ...) bitcast (i32 (...)* @gets to i32 (i8*, ...)*)(i8* getelementptr inbounds ([105 x i8], [105 x i8]* @s, i64 0, i64 0))
  %6 = call i64 @strlen(i8* getelementptr inbounds ([105 x i8], [105 x i8]* @s, i64 0, i64 0)) #3
  %7 = trunc i64 %6 to i32
  store i32 %7, i32* %2, align 4
  store i32 0, i32* %1, align 4
  br label %8

8:                                                ; preds = %27, %0
  %9 = load i32, i32* %1, align 4
  %10 = load i32, i32* %2, align 4
  %11 = icmp slt i32 %9, %10
  br i1 %11, label %12, label %30

12:                                               ; preds = %8
  %13 = load i32, i32* %1, align 4
  %14 = sext i32 %13 to i64
  %15 = getelementptr inbounds [105 x i8], [105 x i8]* @s, i64 0, i64 %14
  %16 = load i8, i8* %15, align 1
  %17 = sext i8 %16 to i32
  %18 = icmp eq i32 %17, 32
  br i1 %18, label %19, label %26

19:                                               ; preds = %12
  %20 = load i32, i32* %1, align 4
  %21 = sub nsw i32 %20, 1
  store i32 %21, i32* %4, align 4
  %22 = load i32, i32* %3, align 4
  %23 = load i32, i32* %4, align 4
  call void @change(i32 %22, i32 %23)
  %24 = load i32, i32* %4, align 4
  %25 = add nsw i32 %24, 2
  store i32 %25, i32* %3, align 4
  br label %26

26:                                               ; preds = %19, %12
  br label %27

27:                                               ; preds = %26
  %28 = load i32, i32* %1, align 4
  %29 = add nsw i32 %28, 1
  store i32 %29, i32* %1, align 4
  br label %8

30:                                               ; preds = %8
  %31 = load i32, i32* %3, align 4
  %32 = load i32, i32* %2, align 4
  %33 = sub nsw i32 %32, 1
  call void @change(i32 %31, i32 %33)
  %34 = load i32, i32* %2, align 4
  %35 = sub nsw i32 %34, 1
  call void @change(i32 0, i32 %35)
  %36 = call i32 @puts(i8* getelementptr inbounds ([105 x i8], [105 x i8]* @s, i64 0, i64 0))
  ret void
}

declare dso_local i32 @gets(...) #1

; Function Attrs: nounwind readonly
declare dso_local i64 @strlen(i8*) #2

declare dso_local i32 @puts(i8*) #1


!llvm.module.flags = !{!0}
!llvm.ident = !{!1}

!0 = !{i32 1, !"wchar_size", i32 4}
!1 = !{!"clang version 10.0.0-4ubuntu1 "}
